target datalayout = "e-m:e-p270:32:32-p271:32:32-p272:64:64-i64:64-i128:128-f80:128-n8:16:32:64-S128"
target triple = "x86_64-pc-linux-gnu"

%struct.cJSON = type { ptr, ptr, ptr, i32, ptr, i32, double, ptr }

; Function Attrs: nounwind sspstrong uwtable
define i32 @cJSONUtils_ApplyPatches(ptr noundef %0, ptr noundef %1) #0 {
  %3 = alloca i32, align 4
  %4 = alloca ptr, align 8
  %5 = alloca ptr, align 8
  %6 = alloca ptr, align 8
  %7 = alloca i32, align 4
  %8 = alloca i32, align 4
  store ptr %0, ptr %4, align 8, !tbaa !3
  store ptr %1, ptr %5, align 8, !tbaa !3
  call void @llvm.lifetime.start.p0(i64 8, ptr %6) #8
  store ptr null, ptr %6, align 8, !tbaa !3
  call void @llvm.lifetime.start.p0(i64 4, ptr %7) #8
  store i32 0, ptr %7, align 4, !tbaa !19
  %9 = load ptr, ptr %5, align 8, !tbaa !3
  %10 = call i32 @cJSON_IsArray(ptr noundef %9)
  %11 = icmp ne i32 %10, 0
  br i1 %11, label %13, label %12

12:                                               ; preds = %2
  store i32 1, ptr %3, align 4
  store i32 1, ptr %8, align 4
  br label %37

13:                                               ; preds = %2
  %14 = load ptr, ptr %5, align 8, !tbaa !3
  %15 = icmp ne ptr %14, null
  br i1 %15, label %16, label %20

16:                                               ; preds = %13
  %17 = load ptr, ptr %5, align 8, !tbaa !3
  %18 = getelementptr inbounds nuw %struct.cJSON, ptr %17, i32 0, i32 2
  %19 = load ptr, ptr %18, align 8, !tbaa !10
  store ptr %19, ptr %6, align 8, !tbaa !3
  br label %20

20:                                               ; preds = %16, %13
  br label %21

21:                                               ; preds = %32, %20
  %22 = load ptr, ptr %6, align 8, !tbaa !3
  %23 = icmp ne ptr %22, null
  br i1 %23, label %24, label %36

24:                                               ; preds = %21
  %25 = load ptr, ptr %4, align 8, !tbaa !3
  %26 = load ptr, ptr %6, align 8, !tbaa !3
  %27 = call i32 @apply_patch(ptr noundef %25, ptr noundef %26, i32 noundef 0)
  store i32 %27, ptr %7, align 4, !tbaa !19
  %28 = load i32, ptr %7, align 4, !tbaa !19
  %29 = icmp ne i32 %28, 0
  br i1 %29, label %30, label %32

30:                                               ; preds = %24
  %31 = load i32, ptr %7, align 4, !tbaa !19
  store i32 %31, ptr %3, align 4
  store i32 1, ptr %8, align 4
  br label %37

32:                                               ; preds = %24
  %33 = load ptr, ptr %6, align 8, !tbaa !3
  %34 = getelementptr inbounds nuw %struct.cJSON, ptr %33, i32 0, i32 0
  %35 = load ptr, ptr %34, align 8, !tbaa !18
  store ptr %35, ptr %6, align 8, !tbaa !3
  br label %21

36:                                               ; preds = %21
  store i32 0, ptr %3, align 4
  store i32 1, ptr %8, align 4
  br label %37

37:                                               ; preds = %36, %30, %12
  call void @llvm.lifetime.end.p0(i64 4, ptr %7) #8
  call void @llvm.lifetime.end.p0(i64 8, ptr %6) #8
  %38 = load i32, ptr %3, align 4
  ret i32 %38
}