; Function Attrs: nounwind sspstrong uwtable
define range(i32 0, 14) i32 @cJSONUtils_ApplyPatches(ptr noundef %0, ptr noundef %1) local_unnamed_addr #0 {
  %3 = tail call i32 @cJSON_IsArray(ptr noundef %1) #13
  %.not = icmp eq i32 %3, 0
  br i1 %.not, label %.loopexit, label %4

4:                                                ; preds = %2
  %.not12 = icmp eq ptr %1, null
  br i1 %.not12, label %.loopexit, label %5

5:                                                ; preds = %4
  %6 = getelementptr inbounds nuw i8, ptr %1, i64 16
  %7 = load ptr, ptr %6, align 8, !tbaa !17
  %.not1315 = icmp eq ptr %7, null
  br i1 %.not1315, label %.loopexit, label %.lr.ph

.lr.ph:                                           ; preds = %5, %9
  %.116 = phi ptr [ %10, %9 ], [ %7, %5 ]
  %8 = tail call fastcc i32 @apply_patch(ptr noundef %0, ptr noundef %.116, i32 noundef 0)
  %.not14 = icmp eq i32 %8, 0
  br i1 %.not14, label %9, label %.loopexit

9:                                                ; preds = %.lr.ph
  %10 = load ptr, ptr %.116, align 8, !tbaa !18
  %.not13 = icmp eq ptr %10, null
  br i1 %.not13, label %.loopexit, label %.lr.ph

.loopexit:                                        ; preds = %.lr.ph, %9, %4, %5, %2
  %.09 = phi i32 [ 1, %2 ], [ 0, %5 ], [ 0, %4 ], [ %8, %.lr.ph ], [ 0, %9 ]
  ret i32 %.09
}